target datalayout = "e-m:e-p270:32:32-p271:32:32-p272:64:64-i64:64-i128:128-f80:128-n8:16:32:64-S128"
target triple = "x86_64-pc-linux-gnu"

%struct.job_record = type { i32, ptr, ptr, ptr, ptr, i16, i32, i32, i32, ptr, i32, ptr, ptr, i16, ptr, double, i64, ptr, ptr, ptr, ptr, ptr, ptr, i32, ptr, i32, i64, i64, i32, i32, ptr, i16, i64, i64, i8, i32, ptr, ptr, ptr, ptr, ptr, ptr, ptr, ptr, i32, ptr, ptr, i32, ptr, i32, ptr, i32, ptr, i32, ptr, ptr, ptr, ptr, ptr, ptr, i32, i16, i64, ptr, ptr, ptr, ptr, %struct.acct_policy_limit_set_t, i16, ptr, ptr, ptr, ptr, ptr, i32, ptr, ptr, ptr, ptr, ptr, i32, i32, ptr, ptr, ptr, i16, ptr, ptr, i8, ptr, ptr, i64, i64, i8, i32, i32, i8, i32, ptr, i32, i64, i32, ptr, ptr, ptr, i8, i16, i64, i32, ptr, ptr, ptr, ptr, ptr, i16, i32, ptr, ptr, ptr, ptr, i32, ptr, i32, i16, i64, ptr, i32, i32, ptr, i64, ptr, ptr, i64, i32, i32, i64, i32, i32, ptr, ptr, ptr, ptr, ptr, ptr, ptr, ptr, ptr, ptr, ptr, ptr, i32, ptr, i16, i16, i16, i16, ptr, i32, i32, i8, i64 }
%struct.acct_policy_limit_set_t = type { i16, i16, ptr }
%struct.job_array_struct = type { i32, ptr, ptr, i32, i32, i32, i32, i32, i32, i32 }

@acct_db_conn = external global ptr, align 8

; Function Attrs: nounwind uwtable
define dso_local void @build_array_str(ptr noundef %0) #0 {
  %2 = alloca ptr, align 8
  %3 = alloca ptr, align 8
  %4 = alloca i32, align 4
  store ptr %0, ptr %2, align 8
  call void @llvm.lifetime.start.p0(i64 8, ptr %3) #13
  %5 = load ptr, ptr %2, align 8
  %6 = getelementptr inbounds nuw %struct.job_record, ptr %5, i32 0, i32 9
  %7 = load ptr, ptr %6, align 8
  store ptr %7, ptr %3, align 8
  %8 = load ptr, ptr %3, align 8
  %9 = icmp ne ptr %8, null
  br i1 %9, label %10, label %33

10:                                               ; preds = %1
  %11 = load ptr, ptr %3, align 8
  %12 = getelementptr inbounds nuw %struct.job_array_struct, ptr %11, i32 0, i32 2
  %13 = load ptr, ptr %12, align 8
  %14 = icmp ne ptr %13, null
  br i1 %14, label %33, label %15

15:                                               ; preds = %10
  %16 = load ptr, ptr %3, align 8
  %17 = getelementptr inbounds nuw %struct.job_array_struct, ptr %16, i32 0, i32 1
  %18 = load ptr, ptr %17, align 8
  %19 = icmp ne ptr %18, null
  br i1 %19, label %20, label %33

20:                                               ; preds = %15
  %21 = load ptr, ptr %2, align 8
  %22 = getelementptr inbounds nuw %struct.job_record, ptr %21, i32 0, i32 8
  %23 = load i32, ptr %22, align 4
  %24 = icmp ne i32 %23, -2
  br i1 %24, label %33, label %25

25:                                               ; preds = %20
  %26 = load ptr, ptr %2, align 8
  %27 = getelementptr inbounds nuw %struct.job_record, ptr %26, i32 0, i32 9
  %28 = load ptr, ptr %27, align 8
  %29 = getelementptr inbounds nuw %struct.job_array_struct, ptr %28, i32 0, i32 1
  %30 = load ptr, ptr %29, align 8
  %31 = call i64 @bit_ffs(ptr noundef %30)
  %32 = icmp eq i64 %31, -1
  br i1 %32, label %33, label %34

33:                                               ; preds = %25, %20, %15, %10, %1
  store i32 1, ptr %4, align 4
  br label %44

34:                                               ; preds = %25
  %35 = load ptr, ptr %3, align 8
  %36 = getelementptr inbounds nuw %struct.job_array_struct, ptr %35, i32 0, i32 1
  %37 = load ptr, ptr %36, align 8
  %38 = call ptr @bit_fmt_hexmask(ptr noundef %37)
  %39 = load ptr, ptr %3, align 8
  %40 = getelementptr inbounds nuw %struct.job_array_struct, ptr %39, i32 0, i32 2
  store ptr %38, ptr %40, align 8
  %41 = load ptr, ptr @acct_db_conn, align 8
  %42 = load ptr, ptr %2, align 8
  %43 = call i32 @jobacct_storage_g_job_start(ptr noundef %41, ptr noundef %42)
  store i32 0, ptr %4, align 4
  br label %44

44:                                               ; preds = %34, %33
  call void @llvm.lifetime.end.p0(i64 8, ptr %3) #13
  %45 = load i32, ptr %4, align 4
  switch i32 %45, label %47 [
    i32 0, label %46
    i32 1, label %46
  ]

46:                                               ; preds = %44, %44
  ret void

47:                                               ; preds = %44
  unreachable
}