; Function Attrs: nounwind uwtable
define dso_local void @build_array_str(ptr noundef %0) local_unnamed_addr #0 {
  %2 = getelementptr inbounds nuw i8, ptr %0, i64 56
  %3 = load ptr, ptr %2, align 8
  %.not = icmp eq ptr %3, null
  br i1 %.not, label %21, label %4

4:                                                ; preds = %1
  %5 = getelementptr inbounds nuw i8, ptr %3, i64 16
  %6 = load ptr, ptr %5, align 8
  %.not10 = icmp eq ptr %6, null
  br i1 %.not10, label %7, label %21

7:                                                ; preds = %4
  %8 = getelementptr inbounds nuw i8, ptr %3, i64 8
  %9 = load ptr, ptr %8, align 8
  %.not11 = icmp eq ptr %9, null
  br i1 %.not11, label %21, label %10

10:                                               ; preds = %7
  %11 = getelementptr inbounds nuw i8, ptr %0, i64 52
  %12 = load i32, ptr %11, align 4
  %.not12 = icmp eq i32 %12, -2
  br i1 %.not12, label %13, label %21

13:                                               ; preds = %10
  %14 = tail call i64 @bit_ffs(ptr noundef nonnull %9) #27
  %15 = icmp eq i64 %14, -1
  br i1 %15, label %21, label %16

16:                                               ; preds = %13
  %17 = load ptr, ptr %8, align 8
  %18 = tail call ptr @bit_fmt_hexmask(ptr noundef %17) #27
  store ptr %18, ptr %5, align 8
  %19 = load ptr, ptr @acct_db_conn, align 8
  %20 = tail call i32 @jobacct_storage_g_job_start(ptr noundef %19, ptr noundef nonnull %0) #27
  br label %21

21:                                               ; preds = %1, %4, %7, %10, %13, %16
  ret void
}